ccopy_reg
_reconstructor
p1
(cutil
Counter
p2
c__builtin__
dict
p3
(dp4
S'aggregateHeight'
p5
F-0.74627161526703745
sS'bias'
p6
F-0.0092645177571703922
sS'avgHeightDiff'
p7
F-0.015053826757485384
sS'holeSizeSquared'
p8
F-0.0059509268790519706
stRp9
.